target datalayout = "e-m:e-p270:32:32-p271:32:32-p272:64:64-i64:64-i128:128-f80:128-n8:16:32:64-S128"
target triple = "x86_64-pc-linux-gnu"

%class.QString = type { %struct.QArrayDataPointer }
%struct.QArrayDataPointer = type { ptr, ptr, i64 }
%class.ProtocolPreferencesMenu = type { %class.QMenu, %class.QString, ptr, ptr }
%class.QMenu = type { %class.QWidget }
%class.QWidget = type { %class.QObject, %class.QPaintDevice.base, ptr }
%class.QObject = type { ptr, %class.QScopedPointer }
%class.QScopedPointer = type { ptr }
%class.QPaintDevice.base = type <{ ptr, i16 }>
%class.QAction = type { %class.QObject }
%class.EditorPreferenceAction = type { %class.QAction, ptr }

; Function Attrs: mustprogress nounwind null_pointer_is_valid sspstrong uwtable
define linkonce_odr noundef ptr @_ZN22EditorPreferenceAction4prefEv(ptr noundef align 8 dereferenceable_or_null(24) %0) #7 comdat align 2 {
  %2 = alloca ptr, align 8
  store ptr %0, ptr %2, align 8
  %3 = load ptr, ptr %2, align 8
  %4 = getelementptr inbounds nuw %class.EditorPreferenceAction, ptr %3, i32 0, i32 1
  %5 = load ptr, ptr %4, align 8
  ret ptr %5
}

; Function Attrs: mustprogress null_pointer_is_valid sspstrong uwtable
define void @_ZN23ProtocolPreferencesMenu25editorPreferenceTriggeredEv(ptr noundef align 8 dereferenceable_or_null(80) %0) #0 align 2 {
  %2 = alloca ptr, align 8
  %3 = alloca ptr, align 8
  %4 = alloca i32, align 4
  store ptr %0, ptr %2, align 8
  %5 = load ptr, ptr %2, align 8
  call void @llvm.lifetime.start.p0(i64 8, ptr %3) #13
  %6 = call noundef ptr @_ZNK7QObject6senderEv(ptr noundef align 8 dereferenceable_or_null(16) %5)
  store ptr %6, ptr %3, align 8
  %7 = load ptr, ptr %3, align 8
  %8 = icmp ne ptr %7, null
  br i1 %8, label %10, label %9

9:                                                ; preds = %1
  store i32 1, ptr %4, align 4
  br label %24

10:                                               ; preds = %1
  %11 = load ptr, ptr %3, align 8
  %12 = call noundef ptr @_ZN22EditorPreferenceAction4prefEv(ptr noundef align 8 dereferenceable_or_null(24) %11)
  %13 = icmp ne ptr %12, null
  br i1 %13, label %14, label %23

14:                                               ; preds = %10
  %15 = getelementptr inbounds nuw %class.ProtocolPreferencesMenu, ptr %5, i32 0, i32 2
  %16 = load ptr, ptr %15, align 8
  %17 = icmp ne ptr %16, null
  br i1 %17, label %18, label %23

18:                                               ; preds = %14
  %19 = load ptr, ptr %3, align 8
  %20 = call noundef ptr @_ZN22EditorPreferenceAction4prefEv(ptr noundef align 8 dereferenceable_or_null(24) %19)
  %21 = getelementptr inbounds nuw %class.ProtocolPreferencesMenu, ptr %5, i32 0, i32 2
  %22 = load ptr, ptr %21, align 8
  call void @_ZN23ProtocolPreferencesMenu22editProtocolPreferenceEP10preferenceP11pref_module(ptr noundef align 8 dereferenceable_or_null(80) %5, ptr noundef %20, ptr noundef %22)
  br label %23

23:                                               ; preds = %18, %14, %10
  store i32 0, ptr %4, align 4
  br label %24

24:                                               ; preds = %23, %9
  call void @llvm.lifetime.end.p0(i64 8, ptr %3) #13
  %25 = load i32, ptr %4, align 4
  switch i32 %25, label %27 [
    i32 0, label %26
    i32 1, label %26
  ]

26:                                               ; preds = %24, %24
  ret void

27:                                               ; preds = %24
  unreachable
}