; Function Attrs: mustprogress null_pointer_is_valid sspstrong uwtable
define void @_ZN23ProtocolPreferencesMenu25editorPreferenceTriggeredEv(ptr noundef align 8 dereferenceable_or_null(80) %0) #0 align 2 {
  %2 = tail call noundef ptr @_ZNK7QObject6senderEv(ptr noundef align 8 dereferenceable_or_null(16) %0)
  %.not = icmp eq ptr %2, null
  br i1 %.not, label %10, label %3

3:                                                ; preds = %1
  %4 = getelementptr inbounds nuw i8, ptr %2, i64 16
  %5 = load ptr, ptr %4, align 8
  %.not4 = icmp eq ptr %5, null
  br i1 %.not4, label %10, label %6

6:                                                ; preds = %3
  %7 = getelementptr inbounds nuw i8, ptr %0, i64 64
  %8 = load ptr, ptr %7, align 8
  %.not5 = icmp eq ptr %8, null
  br i1 %.not5, label %10, label %9

9:                                                ; preds = %6
  tail call void @_ZN23ProtocolPreferencesMenu22editProtocolPreferenceEP10preferenceP11pref_module(ptr noundef align 8 dereferenceable_or_null(80) %0, ptr noundef nonnull %5, ptr noundef nonnull %8)
  br label %10

10:                                               ; preds = %3, %6, %9, %1
  ret void
}